target datalayout = "e-m:e-p270:32:32-p271:32:32-p272:64:64-i64:64-i128:128-f80:128-n8:16:32:64-S128"
target triple = "x86_64-pc-linux-gnu"

%"class.base::BasicStringPiece" = type { ptr, i64 }

; Function Attrs: inlinehint mustprogress nounwind uwtable
define linkonce_odr noundef zeroext i1 @_ZN4base16IsValidCharacterEj(i32 noundef %0) #7 comdat {
  %2 = alloca i32, align 4
  store i32 %0, ptr %2, align 4, !tbaa !52
  %3 = load i32, ptr %2, align 4, !tbaa !52
  %4 = icmp ult i32 %3, 55296
  br i1 %4, label %23, label %5

5:                                                ; preds = %1
  %6 = load i32, ptr %2, align 4, !tbaa !52
  %7 = icmp uge i32 %6, 57344
  br i1 %7, label %8, label %11

8:                                                ; preds = %5
  %9 = load i32, ptr %2, align 4, !tbaa !52
  %10 = icmp ult i32 %9, 64976
  br i1 %10, label %23, label %11

11:                                               ; preds = %8, %5
  %12 = load i32, ptr %2, align 4, !tbaa !52
  %13 = icmp ugt i32 %12, 65007
  br i1 %13, label %14, label %21

14:                                               ; preds = %11
  %15 = load i32, ptr %2, align 4, !tbaa !52
  %16 = icmp ule i32 %15, 1114111
  br i1 %16, label %17, label %21

17:                                               ; preds = %14
  %18 = load i32, ptr %2, align 4, !tbaa !52
  %19 = and i32 %18, 65534
  %20 = icmp ne i32 %19, 65534
  br label %21

21:                                               ; preds = %17, %14, %11
  %22 = phi i1 [ false, %14 ], [ false, %11 ], [ %20, %17 ]
  br label %23

23:                                               ; preds = %21, %8, %1
  %24 = phi i1 [ true, %8 ], [ true, %1 ], [ %22, %21 ]
  ret i1 %24
}

; Function Attrs: mustprogress nounwind uwtable
define available_externally noundef i64 @_ZNK4base16BasicStringPieceINSt7__cxx1112basic_stringIcSt11char_traitsIcESaIcEEEE6lengthEv(ptr noundef nonnull align 8 dereferenceable(16) %0) #0 align 2 {
  %2 = alloca ptr, align 8
  store ptr %0, ptr %2, align 8, !tbaa !34
  %3 = load ptr, ptr %2, align 8
  %4 = getelementptr inbounds nuw %"class.base::BasicStringPiece", ptr %3, i32 0, i32 1
  %5 = load i64, ptr %4, align 8, !tbaa !36
  ret i64 %5
}

; Function Attrs: mustprogress nounwind uwtable
define available_externally noundef ptr @_ZNK4base16BasicStringPieceINSt7__cxx1112basic_stringIcSt11char_traitsIcESaIcEEEE4dataEv(ptr noundef nonnull align 8 dereferenceable(16) %0) #0 align 2 {
  %2 = alloca ptr, align 8
  store ptr %0, ptr %2, align 8, !tbaa !34
  %3 = load ptr, ptr %2, align 8
  %4 = getelementptr inbounds nuw %"class.base::BasicStringPiece", ptr %3, i32 0, i32 0
  %5 = load ptr, ptr %4, align 8, !tbaa !49
  ret ptr %5
}

; Function Attrs: mustprogress uwtable
define noundef zeroext i1 @_ZN4base12IsStringUTF8ERKNS_16BasicStringPieceINSt7__cxx1112basic_stringIcSt11char_traitsIcESaIcEEEEE(ptr noundef nonnull align 8 dereferenceable(16) %0) #3 {
  %2 = alloca i1, align 1
  %3 = alloca ptr, align 8
  %4 = alloca ptr, align 8
  %5 = alloca i32, align 4
  %6 = alloca i32, align 4
  %7 = alloca i32, align 4
  %8 = alloca i32, align 4
  store ptr %0, ptr %3, align 8, !tbaa !34
  call void @llvm.lifetime.start.p0(i64 8, ptr %4) #17
  %9 = load ptr, ptr %3, align 8, !tbaa !34
  %10 = call noundef ptr @_ZNK4base16BasicStringPieceINSt7__cxx1112basic_stringIcSt11char_traitsIcESaIcEEEE4dataEv(ptr noundef nonnull align 8 dereferenceable(16) %9)
  store ptr %10, ptr %4, align 8, !tbaa !18
  call void @llvm.lifetime.start.p0(i64 4, ptr %5) #17
  %11 = load ptr, ptr %3, align 8, !tbaa !34
  %12 = call noundef i64 @_ZNK4base16BasicStringPieceINSt7__cxx1112basic_stringIcSt11char_traitsIcESaIcEEEE6lengthEv(ptr noundef nonnull align 8 dereferenceable(16) %11)
  %13 = trunc i64 %12 to i32
  store i32 %13, ptr %5, align 4, !tbaa !52
  call void @llvm.lifetime.start.p0(i64 4, ptr %6) #17
  store i32 0, ptr %6, align 4, !tbaa !52
  br label %14

14:                                               ; preds = %50, %1
  %15 = load i32, ptr %6, align 4, !tbaa !52
  %16 = load i32, ptr %5, align 4, !tbaa !52
  %17 = icmp slt i32 %15, %16
  br i1 %17, label %18, label %51

18:                                               ; preds = %14
  call void @llvm.lifetime.start.p0(i64 4, ptr %7) #17
  %19 = load ptr, ptr %4, align 8, !tbaa !18
  %20 = load i32, ptr %6, align 4, !tbaa !52
  %21 = add nsw i32 %20, 1
  store i32 %21, ptr %6, align 4, !tbaa !52
  %22 = sext i32 %20 to i64
  %23 = getelementptr inbounds i8, ptr %19, i64 %22
  %24 = load i8, ptr %23, align 1, !tbaa !29
  %25 = sext i8 %24 to i32
  store i32 %25, ptr %7, align 4, !tbaa !52
  %26 = load i32, ptr %7, align 4, !tbaa !52
  %27 = trunc i32 %26 to i8
  %28 = zext i8 %27 to i32
  %29 = icmp sge i32 %28, 128
  br i1 %29, label %30, label %43

30:                                               ; preds = %18
  %31 = load i32, ptr %7, align 4, !tbaa !52
  %32 = sub nsw i32 %31, 192
  %33 = trunc i32 %32 to i8
  %34 = zext i8 %33 to i32
  %35 = icmp slt i32 %34, 62
  br i1 %35, label %36, label %41

36:                                               ; preds = %30
  %37 = load ptr, ptr %4, align 8, !tbaa !18
  %38 = load i32, ptr %5, align 4, !tbaa !52
  %39 = load i32, ptr %7, align 4, !tbaa !52
  %40 = call noundef i32 @_ZN8base_icu21utf8_nextCharSafeBodyEPKhPiiia(ptr noundef %37, ptr noundef %6, i32 noundef %38, i32 noundef %39, i8 noundef signext -1)
  store i32 %40, ptr %7, align 4, !tbaa !52
  br label %42

41:                                               ; preds = %30
  store i32 -1, ptr %7, align 4, !tbaa !52
  br label %42

42:                                               ; preds = %41, %36
  br label %43

43:                                               ; preds = %42, %18
  %44 = load i32, ptr %7, align 4, !tbaa !52
  %45 = call noundef zeroext i1 @_ZN4base16IsValidCharacterEj(i32 noundef %44)
  br i1 %45, label %47, label %46

46:                                               ; preds = %43
  store i1 false, ptr %2, align 1
  store i32 1, ptr %8, align 4
  br label %48

47:                                               ; preds = %43
  store i32 0, ptr %8, align 4
  br label %48

48:                                               ; preds = %47, %46
  call void @llvm.lifetime.end.p0(i64 4, ptr %7) #17
  %49 = load i32, ptr %8, align 4
  switch i32 %49, label %52 [
    i32 0, label %50
  ]

50:                                               ; preds = %48
  br label %14, !llvm.loop !83

51:                                               ; preds = %14
  store i1 true, ptr %2, align 1
  store i32 1, ptr %8, align 4
  br label %52

52:                                               ; preds = %51, %48
  call void @llvm.lifetime.end.p0(i64 4, ptr %6) #17
  call void @llvm.lifetime.end.p0(i64 4, ptr %5) #17
  call void @llvm.lifetime.end.p0(i64 8, ptr %4) #17
  %53 = load i1, ptr %2, align 1
  ret i1 %53
}