; Function Attrs: mustprogress uwtable
define noundef zeroext i1 @_ZN4base12IsStringUTF8ERKNS_16BasicStringPieceINSt7__cxx1112basic_stringIcSt11char_traitsIcESaIcEEEEE(ptr noundef nonnull readonly align 8 captures(none) dereferenceable(16) %0) local_unnamed_addr #3 {
  %2 = alloca i32, align 4
  %3 = load ptr, ptr %0, align 8, !tbaa !51
  %4 = getelementptr inbounds nuw i8, ptr %0, i64 8
  %5 = load i64, ptr %4, align 8, !tbaa !49
  %6 = trunc i64 %5 to i32
  call void @llvm.lifetime.start.p0(i64 4, ptr nonnull %2) #28
  %7 = icmp slt i32 %6, 1
  br i1 %7, label %_ZN4base16IsValidCharacterEj.exit.thread, label %.lr.ph

.lr.ph:                                           ; preds = %1, %_ZN4base16IsValidCharacterEj.exit.backedge
  %8 = phi i32 [ %27, %_ZN4base16IsValidCharacterEj.exit.backedge ], [ 0, %1 ]
  %9 = add nsw i32 %8, 1
  store i32 %9, ptr %2, align 4, !tbaa !72
  %10 = sext i32 %8 to i64
  %11 = getelementptr inbounds i8, ptr %3, i64 %10
  %12 = load i8, ptr %11, align 1, !tbaa !20
  %13 = sext i8 %12 to i32
  %14 = icmp slt i8 %12, 0
  br i1 %14, label %15, label %20

15:                                               ; preds = %.lr.ph
  %16 = add nsw i8 %12, 64
  %17 = icmp ult i8 %16, 62
  br i1 %17, label %18, label %20

18:                                               ; preds = %15
  %19 = call noundef i32 @_ZN8base_icu21utf8_nextCharSafeBodyEPKhPiiia(ptr noundef nonnull %3, ptr noundef nonnull %2, i32 noundef %6, i32 noundef %13, i8 noundef signext -1)
  br label %20

20:                                               ; preds = %15, %18, %.lr.ph
  %.011 = phi i32 [ %19, %18 ], [ %13, %.lr.ph ], [ -1, %15 ]
  %21 = icmp ult i32 %.011, 55296
  %22 = add i32 %.011, -57344
  %or.cond.i = icmp ult i32 %22, 7632
  %or.cond9.i = or i1 %21, %or.cond.i
  br i1 %or.cond9.i, label %_ZN4base16IsValidCharacterEj.exit.backedge, label %23

23:                                               ; preds = %20
  %24 = add i32 %.011, -65008
  %or.cond3.i = icmp ult i32 %24, 1049104
  %25 = and i32 %.011, 65534
  %26 = icmp ne i32 %25, 65534
  %or.cond = and i1 %or.cond3.i, %26
  br i1 %or.cond, label %_ZN4base16IsValidCharacterEj.exit.backedge, label %_ZN4base16IsValidCharacterEj.exit.thread

_ZN4base16IsValidCharacterEj.exit.backedge:       ; preds = %23, %20
  %27 = load i32, ptr %2, align 4, !tbaa !72
  %.not = icmp slt i32 %27, %6
  br i1 %.not, label %.lr.ph, label %_ZN4base16IsValidCharacterEj.exit.thread, !llvm.loop !94

_ZN4base16IsValidCharacterEj.exit.thread:         ; preds = %_ZN4base16IsValidCharacterEj.exit.backedge, %23, %1
  %.lcssa = phi i1 [ true, %1 ], [ false, %23 ], [ true, %_ZN4base16IsValidCharacterEj.exit.backedge ]
  call void @llvm.lifetime.end.p0(i64 4, ptr nonnull %2) #28
  ret i1 %.lcssa
}